(dp0
S'2017-3-19M'
p1
(lp2
(S'10:10:01'
p3
S'W'
p4
tp5
a(S'10:19:00'
p6
S'T_B'
p7
tp8
a(S'10:27:00'
p9
S'T_E'
p10
tp11
a(S'10:28:00'
p12
S'P_W'
p13
tp14
a(S'10:31:00'
p15
g7
tp16
a(S'10:32:00'
p17
S'T_S'
p18
tp19
a(S'10:35:00'
p20
g18
tp21
a(S'10:38:00'
p22
g10
tp23
a(S'10:39:00'
p24
g4
tp25
asS'2017-3-20M'
p26
(lp27
(S'08:26:00'
p28
S'S'
p29
tp30
a(S'08:27:40'
p31
g4
tp32
a(S'08:32:25'
p33
S'D_S'
p34
tp35
a(S'08:33:14'
p36
g4
tp37
a(S'08:38:25'
p38
g34
tp39
a(S'08:38:40'
p40
g4
tp41
a(S'08:41:27'
p42
g29
tp43
a(S'08:43:20'
p44
S'T_D'
p45
tp46
a(S'08:51:54'
p47
S'T_T'
p48
tp49
a(S'08:52:04'
p50
g29
tp51
a(S'08:53:59'
p52
g45
tp53
a(S'08:54:54'
p54
g18
tp55
a(S'08:55:36'
p56
g45
tp57
a(S'08:57:35'
p58
g18
tp59
a(S'08:58:27'
p60
g45
tp61
a(S'08:59:27'
p62
g18
tp63
a(S'08:59:37'
p64
g4
tp65
a(S'08:59:50'
p66
S'U_S'
p67
tp68
a(S'09:00:06'
p69
g4
tp70
a(S'09:00:16'
p71
g67
tp72
a(S'09:01:08'
p73
g4
tp74
a(S'09:03:20'
p75
S'E_U'
p76
tp77
a(S'09:04:52'
p78
g4
tp79
asS'2017-3-21M'
p80
(lp81
(S'08:49:00'
p82
g45
tp83
a(S'08:59:52'
p84
g18
tp85
a(S'09:00:02'
p86
g4
tp87
a(S'09:02:00'
p88
g29
tp89
a(S'09:04:29'
p90
g45
tp91
a(S'09:07:06'
p92
g45
tp93
a(S'09:08:07'
p94
g18
tp95
a(S'09:08:12'
p96
g4
tp97
asS'2017-3-19E'
p98
(lp99
(S'18:12:00'
p100
g4
tp101
a(S'18:14:50'
p102
S'E_D'
p103
tp104
a(S'18:15:27'
p105
g4
tp106
a(S'18:16:18'
p107
g34
tp108
a(S'18:16:33'
p109
g4
tp110
a(S'18:18:29'
p111
g45
tp112
a(S'18:20:09'
p113
g18
tp114
a(S'18:20:39'
p115
g45
tp116
a(S'18:21:49'
p117
g18
tp118
a(S'18:22:19'
p119
g45
tp120
a(S'18:24:13'
p121
g18
tp122
a(S'18:24:43'
p123
g45
tp124
a(S'18:26:16'
p125
g18
tp126
a(S'18:26:46'
p127
g45
tp128
a(S'18:27:55'
p129
g18
tp130
a(S'18:28:25'
p131
g45
tp132
a(S'18:29:23'
p133
g18
tp134
a(S'18:29:53'
p135
g45
tp136
a(S'18:31:01'
p137
g18
tp138
a(S'18:31:31'
p139
g45
tp140
a(S'18:32:22'
p141
g18
tp142
a(S'18:32:52'
p143
g45
tp144
a(S'18:33:45'
p145
g18
tp146
a(S'18:34:15'
p147
g45
tp148
a(S'18:35:11'
p149
g18
tp150
a(S'18:35:41'
p151
g45
tp152
a(S'18:36:54'
p153
g18
tp154
a(S'18:37:04'
p155
g4
tp156
a(S'18:37:22'
p157
g67
tp158
a(S'18:37:32'
p159
g4
tp160
a(S'18:38:02'
p161
g67
tp162
a(S'18:38:17'
p163
g4
tp164
asS'2017-3-21E'
p165
(lp166
(S'17:39:00'
p167
g45
tp168
a(S'17:40:30'
p169
g18
tp170
a(S'17:40:59'
p171
g45
tp172
a(S'17:44:27'
p173
g18
tp174
a(S'17:44:57'
p175
g45
tp176
a(S'17:47:50'
p177
g18
tp178
a(S'17:47:55'
p179
g4
tp180
a(S'17:50:31'
p181
g103
tp182
a(S'17:50:57'
p183
g4
tp184
a(S'17:52:48'
p185
g45
tp186
a(S'17:54:26'
p187
g18
tp188
a(S'17:54:44'
p189
g45
tp190
a(S'17:56:00'
p191
g18
tp192
a(S'17:56:20'
p193
g45
tp194
a(S'17:57:27'
p195
g18
tp196
a(S'17:57:47'
p197
g45
tp198
a(S'17:59:13'
p199
g18
tp200
a(S'17:59:33'
p201
g45
tp202
a(S'18:00:46'
p203
g18
tp204
a(S'18:01:06'
p205
g45
tp206
a(S'18:02:28'
p207
g18
tp208
a(S'18:02:33'
p209
g4
tp210
asS'2017-3-20E'
p211
(lp212
(S'21:12:00'
p213
g4
tp214
a(S'21:17:08'
p215
g103
tp216
a(S'21:21:00'
p217
g45
tp218
a(S'21:22:15'
p219
g18
tp220
a(S'21:22:45'
p221
g45
tp222
a(S'21:25:15'
p223
g18
tp224
a(S'21:25:45'
p225
g45
tp226
a(S'21:33:30'
p227
g18
tp228
a(S'21:33:35'
p229
g4
tp230
a(S'21:34:57'
p231
g67
tp232
a(S'21:35:10'
p233
g4
tp234
a(S'21:35:55'
p235
g67
tp236
a(S'21:35:16'
p237
g4
tp238
as.