(dp0
S'2017-3-25'
p1
(lp2
(S'11:53:23'
p3
S'S'
p4
tp5
a(S'11:53:54'
p6
S'E_D'
p7
tp8
a(S'11:54:10'
p9
S'W'
p10
tp11
a(S'11:58:16'
p12
g4
tp13
a(S'12:00:10'
p14
S'T_D'
p15
tp16
a(S'12:01:32'
p17
S'T_S'
p18
tp19
a(S'12:01:53'
p20
g15
tp21
a(S'12:03:53'
p22
g18
tp23
a(S'12:04:15'
p24
g15
tp25
a(S'12:05:16'
p26
g18
tp27
a(S'12:05:45'
p28
g15
tp29
a(S'12:06:57'
p30
g18
tp31
a(S'12:07:16'
p32
g15
tp33
a(S'12:08:14'
p34
g18
tp35
a(S'12:08:38'
p36
g15
tp37
a(S'12:11:41'
p38
g18
tp39
a(S'12:11:45'
p40
g10
tp41
a(S'12:12:00'
p42
g4
tp43
a(S'12:15:53'
p44
g15
tp45
a(S'12:17:21'
p46
g18
tp47
a(S'12:18:17'
p48
g15
tp49
a(S'12:19:17'
p50
g18
tp51
a(S'12:19:57'
p52
g15
tp53
a(S'12:21:10'
p54
g18
tp55
a(S'12:21:15'
p56
g10
tp57
a(S'12:22:40'
p58
S'E_U'
p59
tp60
asS'2017-3-20'
p61
(lp62
(S'23:40:33'
p63
g10
tp64
a(S'23:40:52'
p65
g4
tp66
a(S'23:41:25'
p67
S'E_D'
p68
tp69
a(S'23:41:57'
p70
g10
tp71
a(S'23:45:35'
p72
g4
tp73
a(S'23:52:00'
p74
S'T_D'
p75
tp76
a(S'23:53:23'
p77
S'T_S'
p78
tp79
a(S'23:53:40'
p80
g75
tp81
a(S'23:54:40'
p82
g78
tp83
a(S'23:55:02'
p84
g75
tp85
a(S'23:56:35'
p86
g78
tp87
a(S'00:00:04'
p88
g75
tp89
a(S'00:02:59'
p90
g78
tp91
a(S'00:03:18'
p92
g75
tp93
a(S'00:04:19'
p94
g78
tp95
a(S'00:04:37'
p96
g75
tp97
a(S'00:06:14'
p98
g78
tp99
a(S'00:06:34'
p100
g75
tp101
a(S'00:07:33'
p102
g78
tp103
a(S'00:07:50'
p104
g75
tp105
a(S'00:09:57'
p106
g78
tp107
a(S'00:10:19'
p108
g75
tp109
a(S'00:11:59'
p110
g78
tp111
a(S'00:12:08'
p112
g10
tp113
a(S'00:16:35'
p114
S'E_U'
p115
tp116
asS'2017-3-21'
p117
(lp118
(S'12:10:55'
p119
g10
tp120
a(S'12:11:30'
p121
g4
tp122
a(S'12:12:18'
p123
S'E_D'
p124
tp125
a(S'12:12:35'
p126
g10
tp127
a(S'12:16:05'
p128
S'T_D'
p129
tp130
a(S'12:17:44'
p131
S'T_S'
p132
tp133
a(S'12:18:08'
p134
g129
tp135
a(S'12:20:40'
p136
g132
tp137
a(S'12:21:12'
p138
g129
tp139
a(S'12:22:21'
p140
g132
tp141
a(S'12:22:52'
p142
g129
tp143
a(S'12:24:15'
p144
g132
tp145
a(S'12:24:49'
p146
g129
tp147
a(S'12:26:50'
p148
g132
tp149
a(S'12:27:45'
p150
g129
tp151
a(S'12:29:16'
p152
g132
tp153
a(S'12:30:02'
p154
g129
tp155
a(S'12:32:42'
p156
g132
tp157
a(S'12:32:45'
p158
g10
tp159
a(S'21:46:15'
p160
g4
tp161
a(S'21:46:33'
p162
S'E_D'
p163
tp164
a(S'21:46:59'
p165
g10
tp166
a(S'21:48:57'
p167
S'T_D'
p168
tp169
a(S'21:50:47'
p170
S'T_S'
p171
tp172
a(S'21:51:06'
p173
g168
tp174
a(S'21:52:43'
p175
g171
tp176
a(S'21:53:08'
p177
g168
tp178
a(S'21:55:58'
p179
g171
tp180
a(S'21:56:28'
p181
g168
tp182
a(S'21:58:38'
p183
g171
tp184
a(S'21:59:04'
p185
g168
tp186
a(S'22:00:32'
p187
g171
tp188
a(S'22:01:14'
p189
g168
tp190
a(S'22:03:42'
p191
g171
tp192
a(S'22:04:05'
p193
g168
tp194
a(S'22:06:15'
p195
g171
tp196
a(S'22:06:18'
p197
g10
tp198
a(S'22:10:27'
p199
S'E_U'
p200
tp201
asS'2017-3-23'
p202
(lp203
(S'19:45:10'
p204
g10
tp205
a(S'19:48:25'
p206
g4
tp207
a(S'19:52:04'
p208
S'T_D'
p209
tp210
a(S'19:53:53'
p211
S'T_S'
p212
tp213
a(S'19:54:22'
p214
g209
tp215
a(S'19:55:53'
p216
g212
tp217
a(S'19:56:23'
p218
g209
tp219
a(S'19:58:30'
p220
g212
tp221
a(S'19:58:56'
p222
g209
tp223
a(S'20:00:20'
p224
g212
tp225
a(S'20:00:47'
p226
g209
tp227
a(S'20:02:04'
p228
g212
tp229
a(S'20:02:39'
p230
g209
tp231
a(S'20:05:22'
p232
g212
tp233
a(S'20:05:45'
p234
g209
tp235
a(S'20:07:30'
p236
g212
tp237
a(S'20:07:33'
p238
g10
tp239
a(S'20:11:01'
p240
S'E_U'
p241
tp242
as.