(dp0
S'2017-3-24'
p1
(lp2
(S'06:31:10'
p3
S'W'
p4
tp5
a(S'06:32:45'
p6
S'D'
p7
tp8
a(S'06:44:00'
p9
g4
tp10
a(S'07:01:05'
p11
S'S'
p12
tp13
a(S'07:03:50'
p14
S'T_D'
p15
tp16
a(S'07:26:09'
p17
S'T_E'
p18
tp19
a(S'07:32:29'
p20
S'E_U'
p21
tp22
a(S'07:33:05'
p23
g4
tp24
asS'2017-3-20'
p25
(lp26
(S'7:33:33'
p27
g7
tp28
a(S'7:41:55'
p29
g4
tp30
a(S'7:49:01'
p31
g7
tp32
a(S'7:52:45'
p33
g4
tp34
a(S'7:55:45'
p35
S'S_D'
p36
tp37
a(S'7:55:53'
p38
S'P_W'
p39
tp40
a(S'7:56:53'
p41
S'P_S'
p42
tp43
a(S'8:00:23'
p44
S'T_B'
p45
tp46
a(S'8:16:15'
p47
S'T_T'
p48
tp49
a(S'8:21:05'
p50
g45
tp51
a(S'8:30:30'
p52
g18
tp53
a(S'8:31:15'
p54
S'S_U'
p55
tp56
a(S'8:31:20'
p57
g4
tp58
a(S'8:32:05'
p59
g55
tp60
a(S'8:32:10'
p61
g4
tp62
a(S'8:32:35'
p63
g55
tp64
a(S'8:32:50'
p65
g4
tp66
a(S'8:36:40'
p67
g21
tp68
a(S'8:37:50'
p69
g4
tp70
a(S'8:30:10'
p71
g4
tp72
a(S'20:05:55'
p73
g4
tp74
a(S'20:06:30'
p75
S'E_D'
p76
tp77
a(S'20:07:05'
p78
g4
tp79
a(S'20:13:00'
p80
g12
tp81
a(S'20:27:25'
p82
g15
tp83
a(S'20:36:50'
p84
S'T_S'
p85
tp86
a(S'20:38:14'
p87
g15
tp88
a(S'20:44:10'
p89
g85
tp90
a(g89
g85
tp91
a(S'20:45:15'
p92
g15
tp93
a(S'20:46:51'
p94
g85
tp95
a(S'20:47:50'
p96
g15
tp97
a(S'20:49:15'
p98
g85
tp99
a(S'20:50:50'
p100
g15
tp101
a(S'20:51:15'
p102
g85
tp103
a(S'20:54:04'
p104
g15
tp105
a(S'20:53:59'
p106
g18
tp107
a(S'20:54:50'
p108
g55
tp109
a(S'20:55:05'
p110
g4
tp111
a(S'20:57:05'
p112
g7
tp113
a(S'21:08:45'
p114
g4
tp115
asS'2017-3-21'
p116
(lp117
(S'7:33:10'
p118
g4
tp119
a(S'7:34:15'
p120
g7
tp121
a(S'7:48:15'
p122
g4
tp123
a(S'7:50:30'
p124
g7
tp125
a(S'7:55:30'
p126
g4
tp127
a(S'8:01:05'
p128
g15
tp129
a(S'8:17:15'
p130
g85
tp131
a(S'8:20:15'
p132
g15
tp133
a(S'8:28:20'
p134
g18
tp135
a(g134
g4
tp136
a(S'8:35:30'
p137
g21
tp138
a(S'8:35:50'
p139
g4
tp140
a(S'19:00:00'
p141
g4
tp142
a(S'19:08:05'
p143
g12
tp144
a(S'19:15:27'
p145
g15
tp146
a(S'19:24:05'
p147
g85
tp148
a(S'19:24:50'
p149
g15
tp150
a(S'19:32:39'
p151
g85
tp152
a(S'19:33:49'
p153
g15
tp154
a(S'19:35:28'
p155
g85
tp156
a(S'19:36:10'
p157
g15
tp158
a(S'19:37:44'
p159
g85
tp160
a(S'19:38:38'
p161
g15
tp162
a(S'19:39:59'
p163
g85
tp164
a(S'19:40:36'
p165
g15
tp166
a(S'19:42:21'
p167
g85
tp168
a(S'19:42:26'
p169
g4
tp170
a(S'19:48:27'
p171
g7
tp172
a(S'19:59:55'
p173
g4
tp174
asS'2017-3-22'
p175
(lp176
(S'7:40:20'
p177
g7
tp178
a(S'7:41:55'
p179
g7
tp180
a(S'7:52:52'
p181
g4
tp182
a(S'7:55:18'
p183
g12
tp184
a(S'8:01:20'
p185
g15
tp186
a(S'8:14:00'
p187
g48
tp188
a(S'8:17:00'
p189
g15
tp190
a(S'8:25:59'
p191
g18
tp192
a(S'8:26:04'
p193
g4
tp194
a(S'8:33:27'
p195
g21
tp196
a(S'8:34:31'
p197
g4
tp198
a(S'20:29:15'
p199
g4
tp200
a(S'20:32:40'
p201
g76
tp202
a(S'20:33:15'
p203
g4
tp204
a(S'20:49:16'
p205
g15
tp206
a(S'20:58:37'
p207
g85
tp208
a(S'20:59:05'
p209
g15
tp210
a(S'21:06:08'
p211
g85
tp212
a(S'21:07:03'
p213
g15
tp214
a(S'21:08:50'
p215
g85
tp216
a(S'21:09:28'
p217
g15
tp218
a(S'21:10:48'
p219
g85
tp220
a(S'21:11:21'
p221
g15
tp222
a(S'21:12:50'
p223
g85
tp224
a(S'21:13:24'
p225
g15
tp226
a(S'21:15:09'
p227
g85
tp228
a(S'21:16:35'
p229
g7
tp230
a(S'21:32:45'
p231
g4
tp232
asS'2017-3-23'
p233
(lp234
(S'07:22:41'
p235
g4
tp236
a(S'8:01:15'
p237
g15
tp238
a(S'8:13:31'
p239
g85
tp240
a(S'8:17:44'
p241
g15
tp242
a(S'8:27:46'
p243
g18
tp244
a(S'8:27:51'
p245
g4
tp246
a(S'8:33:29'
p247
g21
tp248
a(S'8:34:05'
p249
g4
tp250
a(S'19:42:55'
p251
g4
tp252
a(S'19:43:57'
p253
g76
tp254
a(S'19:45:08'
p255
g4
tp256
a(S'20:08:55'
p257
g12
tp258
a(S'20:29:00'
p259
g4
tp260
a(S'20:33:20'
p261
g12
tp262
a(S'20:51:10'
p263
g15
tp264
a(S'21:01:27'
p265
g85
tp266
a(S'21:02:35'
p267
g15
tp268
a(S'21:08:06'
p269
g85
tp270
a(S'21:09:29'
p271
g15
tp272
a(S'21:11:16'
p273
g85
tp274
a(S'21:12:14'
p275
g15
tp276
a(S'21:14:01'
p277
g85
tp278
a(S'21:15:05'
p279
g15
tp280
a(S'21:16:25'
p281
g85
tp282
a(S'21:17:24'
p283
g15
tp284
a(S'21:19:30'
p285
g18
tp286
a(S'21:19:35'
p287
g4
tp288
a(S'21:21:35'
p289
g7
tp290
as.